; Function Attrs: mustprogress nofree norecurse nosync nounwind memory(read, argmem: readwrite, inaccessiblemem: none) uwtable
define hidden void @_ZN3ue29CharReach3setERKNSt7__cxx1112basic_stringIcSt11char_traitsIcESaIcEEE(ptr noundef nonnull align 8 captures(none) dereferenceable(32) %0, ptr noundef nonnull readonly align 8 captures(none) dereferenceable(32) %1) local_unnamed_addr #0 align 2 {
  %3 = load ptr, ptr %1, align 8
  %4 = getelementptr inbounds nuw i8, ptr %1, i64 8
  %5 = load i64, ptr %4, align 8
  %6 = getelementptr inbounds nuw i8, ptr %3, i64 %5
  %.not8 = icmp samesign eq i64 %5, 0
  br i1 %.not8, label %._crit_edge, label %.lr.ph

._crit_edge:                                      ; preds = %.lr.ph, %2
  ret void

.lr.ph:                                           ; preds = %2, %.lr.ph
  %.sroa.05.09 = phi ptr [ %15, %.lr.ph ], [ %3, %2 ]
  %7 = load i8, ptr %.sroa.05.09, align 1
  %8 = zext i8 %7 to i64
  %9 = and i64 %8, 63
  %10 = shl nuw i64 1, %9
  %11 = lshr i64 %8, 6
  %12 = getelementptr inbounds nuw [4 x i64], ptr %0, i64 0, i64 %11
  %13 = load i64, ptr %12, align 8
  %14 = or i64 %10, %13
  store i64 %14, ptr %12, align 8
  %15 = getelementptr inbounds nuw i8, ptr %.sroa.05.09, i64 1
  %.not = icmp eq ptr %15, %6
  br i1 %.not, label %._crit_edge, label %.lr.ph
}